target datalayout = "e-m:e-p270:32:32-p271:32:32-p272:64:64-i64:64-i128:128-f80:128-n8:16:32:64-S128"
target triple = "x86_64-pc-linux-gnu"

%class.ErrorHandler = type <{ i32, i32, i8, i8, i8, i8, i8, i8, [2 x i8] }>
%class.File = type { ptr, i64, i8, i32, i8, i8, i32, i8, i8, i8, i8, i8, i64, i8, [2048 x i32], i32, ptr }

@ErrHandler = external global %class.ErrorHandler, align 4

; Function Attrs: mustprogress uwtable
define noundef zeroext i1 @_ZN4File5WriteEPKvm(ptr noundef nonnull align 8 dereferenceable(8256) %0, ptr noundef %1, i64 noundef %2) #1 align 2 {
  %4 = alloca i1, align 1
  %5 = alloca ptr, align 8
  %6 = alloca ptr, align 8
  %7 = alloca i64, align 8
  %8 = alloca i8, align 1
  %9 = alloca i64, align 8
  store ptr %0, ptr %5, align 8
  store ptr %1, ptr %6, align 8
  store i64 %2, ptr %7, align 8
  %10 = load ptr, ptr %5, align 8
  %11 = load i64, ptr %7, align 8
  %12 = icmp eq i64 %11, 0
  br i1 %12, label %13, label %14

13:                                               ; preds = %3
  store i1 true, ptr %4, align 1
  br label %79

14:                                               ; preds = %3
  %15 = getelementptr inbounds %class.File, ptr %10, i32 0, i32 3
  %16 = load i32, ptr %15, align 4
  %17 = icmp eq i32 %16, 1
  br i1 %17, label %18, label %27

18:                                               ; preds = %14
  %19 = getelementptr inbounds %class.File, ptr %10, i32 0, i32 1
  %20 = load i64, ptr %19, align 8
  %21 = icmp eq i64 %20, -1
  br i1 %21, label %22, label %26

22:                                               ; preds = %18
  %23 = call i32 @dup(i32 noundef 1) #10
  %24 = sext i32 %23 to i64
  %25 = getelementptr inbounds %class.File, ptr %10, i32 0, i32 1
  store i64 %24, ptr %25, align 8
  br label %26

26:                                               ; preds = %22, %18
  br label %27

27:                                               ; preds = %26, %14
  br label %28

28:                                               ; preds = %70, %27
  store i8 0, ptr %8, align 1
  %29 = getelementptr inbounds %class.File, ptr %10, i32 0, i32 1
  %30 = load i64, ptr %29, align 8
  %31 = trunc i64 %30 to i32
  %32 = load ptr, ptr %6, align 8
  %33 = load i64, ptr %7, align 8
  %34 = call i64 @write(i32 noundef %31, ptr noundef %32, i64 noundef %33)
  store i64 %34, ptr %9, align 8
  %35 = load i64, ptr %9, align 8
  %36 = load i64, ptr %7, align 8
  %37 = icmp eq i64 %35, %36
  %38 = zext i1 %37 to i8
  store i8 %38, ptr %8, align 1
  %39 = load i8, ptr %8, align 1
  %40 = trunc i8 %39 to i1
  br i1 %40, label %74, label %41

41:                                               ; preds = %28
  %42 = getelementptr inbounds %class.File, ptr %10, i32 0, i32 9
  %43 = load i8, ptr %42, align 2
  %44 = trunc i8 %43 to i1
  br i1 %44, label %45, label %74

45:                                               ; preds = %41
  %46 = getelementptr inbounds %class.File, ptr %10, i32 0, i32 3
  %47 = load i32, ptr %46, align 4
  %48 = icmp eq i32 %47, 0
  br i1 %48, label %49, label %74

49:                                               ; preds = %45
  %50 = getelementptr inbounds %class.File, ptr %10, i32 0, i32 14
  %51 = getelementptr inbounds [2048 x i32], ptr %50, i64 0, i64 0
  %52 = call noundef zeroext i1 @_ZN12ErrorHandler14AskRepeatWriteEPKwb(ptr noundef nonnull align 4 dereferenceable(14) @ErrHandler, ptr noundef %51, i1 noundef zeroext false)
  br i1 %52, label %53, label %71

53:                                               ; preds = %49
  %54 = load i64, ptr %9, align 8
  %55 = load i64, ptr %7, align 8
  %56 = icmp ult i64 %54, %55
  br i1 %56, label %57, label %70

57:                                               ; preds = %53
  %58 = load i64, ptr %9, align 8
  %59 = icmp sgt i64 %58, 0
  br i1 %59, label %60, label %70

60:                                               ; preds = %57
  %61 = load ptr, ptr %10, align 8
  %62 = getelementptr inbounds ptr, ptr %61, i64 6
  %63 = load ptr, ptr %62, align 8
  %64 = call noundef i64 %63(ptr noundef nonnull align 8 dereferenceable(8256) %10)
  %65 = load i64, ptr %9, align 8
  %66 = sub nsw i64 %64, %65
  %67 = load ptr, ptr %10, align 8
  %68 = getelementptr inbounds ptr, ptr %67, i64 5
  %69 = load ptr, ptr %68, align 8
  call void %69(ptr noundef nonnull align 8 dereferenceable(8256) %10, i64 noundef %66, i32 noundef 0)
  br label %70

70:                                               ; preds = %60, %57, %53
  br label %28, !llvm.loop !4

71:                                               ; preds = %49
  %72 = getelementptr inbounds %class.File, ptr %10, i32 0, i32 14
  %73 = getelementptr inbounds [2048 x i32], ptr %72, i64 0, i64 0
  call void @_ZN12ErrorHandler10WriteErrorEPKwS1_(ptr noundef nonnull align 4 dereferenceable(14) @ErrHandler, ptr noundef null, ptr noundef %73)
  br label %74

74:                                               ; preds = %71, %45, %41, %28
  br label %75

75:                                               ; preds = %74
  %76 = getelementptr inbounds %class.File, ptr %10, i32 0, i32 2
  store i8 1, ptr %76, align 8
  %77 = load i8, ptr %8, align 1
  %78 = trunc i8 %77 to i1
  store i1 %78, ptr %4, align 1
  br label %79

79:                                               ; preds = %75, %13
  %80 = load i1, ptr %4, align 1
  ret i1 %80
}