; Function Attrs: mustprogress uwtable
define noundef zeroext i1 @_ZN4File5WriteEPKvm(ptr noundef nonnull align 8 dereferenceable(8256) %0, ptr nocapture noundef readonly %1, i64 noundef %2) local_unnamed_addr #2 align 2 {
  %4 = icmp eq i64 %2, 0
  br i1 %4, label %50, label %5

5:                                                ; preds = %3
  %6 = getelementptr inbounds i8, ptr %0, i64 20
  %7 = load i32, ptr %6, align 4
  %8 = icmp eq i32 %7, 1
  %9 = getelementptr inbounds i8, ptr %0, i64 8
  %10 = load i64, ptr %9, align 8
  %11 = icmp eq i64 %10, -1
  %or.cond22 = select i1 %8, i1 %11, i1 false
  br i1 %or.cond22, label %12, label %._crit_edge

12:                                               ; preds = %5
  %13 = tail call i32 @dup(i32 noundef 1) #18
  %14 = sext i32 %13 to i64
  store i64 %14, ptr %9, align 8
  br label %._crit_edge

._crit_edge:                                      ; preds = %5, %12
  %15 = phi i64 [ %14, %12 ], [ %10, %5 ]
  %16 = getelementptr inbounds i8, ptr %0, i64 8
  %17 = trunc i64 %15 to i32
  %18 = tail call i64 @write(i32 noundef %17, ptr noundef %1, i64 noundef %2)
  %19 = icmp eq i64 %18, %2
  br i1 %19, label %.loopexit, label %.lr.ph

.lr.ph:                                           ; preds = %._crit_edge
  %20 = getelementptr inbounds i8, ptr %0, i64 34
  %21 = getelementptr inbounds i8, ptr %0, i64 52
  br label %22

22:                                               ; preds = %.lr.ph, %42
  %23 = phi i64 [ %18, %.lr.ph ], [ %45, %42 ]
  %24 = load i8, ptr %20, align 2
  %25 = trunc i8 %24 to i1
  %26 = load i32, ptr %6, align 4
  %27 = icmp eq i32 %26, 0
  %or.cond16 = select i1 %25, i1 %27, i1 false
  br i1 %or.cond16, label %28, label %.loopexit

28:                                               ; preds = %22
  %29 = tail call noundef zeroext i1 @_ZN12ErrorHandler14AskRepeatWriteEPKwb(ptr noundef nonnull align 4 dereferenceable(14) @ErrHandler, ptr noundef nonnull %21, i1 noundef zeroext false)
  br i1 %29, label %30, label %47

30:                                               ; preds = %28
  %31 = icmp ult i64 %23, %2
  %32 = icmp sgt i64 %23, 0
  %or.cond = and i1 %31, %32
  br i1 %or.cond, label %33, label %42

33:                                               ; preds = %30
  %34 = load ptr, ptr %0, align 8
  %35 = getelementptr inbounds i8, ptr %34, i64 48
  %36 = load ptr, ptr %35, align 8
  %37 = tail call noundef i64 %36(ptr noundef nonnull align 8 dereferenceable(8256) %0)
  %38 = sub nsw i64 %37, %23
  %39 = load ptr, ptr %0, align 8
  %40 = getelementptr inbounds i8, ptr %39, i64 40
  %41 = load ptr, ptr %40, align 8
  tail call void %41(ptr noundef nonnull align 8 dereferenceable(8256) %0, i64 noundef %38, i32 noundef 0)
  br label %42

42:                                               ; preds = %33, %30
  %43 = load i64, ptr %16, align 8
  %44 = trunc i64 %43 to i32
  %45 = tail call i64 @write(i32 noundef %44, ptr noundef %1, i64 noundef %2)
  %46 = icmp eq i64 %45, %2
  br i1 %46, label %.loopexit, label %22, !llvm.loop !4

47:                                               ; preds = %28
  tail call void @_ZN12ErrorHandler10WriteErrorEPKwS1_(ptr noundef nonnull align 4 dereferenceable(14) @ErrHandler, ptr noundef null, ptr noundef nonnull %21)
  br label %.loopexit

.loopexit:                                        ; preds = %22, %42, %._crit_edge, %47
  %48 = phi i1 [ false, %47 ], [ true, %._crit_edge ], [ %or.cond16, %42 ], [ %or.cond16, %22 ]
  %49 = getelementptr inbounds i8, ptr %0, i64 16
  store i8 1, ptr %49, align 8
  br label %50

50:                                               ; preds = %3, %.loopexit
  %.0 = phi i1 [ %48, %.loopexit ], [ true, %3 ]
  ret i1 %.0
}